target datalayout = "e-m:e-p270:32:32-p271:32:32-p272:64:64-i64:64-i128:128-f80:128-n8:16:32:64-S128"
target triple = "x86_64-pc-linux-gnu"

%struct.config_options = type { i8, ptr, ptr, ptr, ptr, i32 }

; Function Attrs: nounwind uwtable
define dso_local void @read_very_early_config(ptr noundef %0, ptr noundef %1) #0 {
  %3 = alloca ptr, align 8
  %4 = alloca ptr, align 8
  %5 = alloca %struct.config_options, align 8
  store ptr %0, ptr %3, align 8, !tbaa !30
  store ptr %1, ptr %4, align 8, !tbaa !30
  call void @llvm.lifetime.start.p0(i64 48, ptr %5) #13
  call void @llvm.memset.p0.i64(ptr align 8 %5, i8 0, i64 48, i1 false)
  %6 = load i8, ptr %5, align 8
  %7 = and i8 %6, -2
  %8 = or i8 %7, 1
  store i8 %8, ptr %5, align 8
  %9 = load i8, ptr %5, align 8
  %10 = and i8 %9, -3
  %11 = or i8 %10, 2
  store i8 %11, ptr %5, align 8
  %12 = load i8, ptr %5, align 8
  %13 = and i8 %12, -5
  %14 = or i8 %13, 4
  store i8 %14, ptr %5, align 8
  %15 = load i8, ptr %5, align 8
  %16 = and i8 %15, -9
  %17 = or i8 %16, 8
  store i8 %17, ptr %5, align 8
  %18 = load i8, ptr %5, align 8
  %19 = and i8 %18, -17
  %20 = or i8 %19, 16
  store i8 %20, ptr %5, align 8
  %21 = load ptr, ptr %3, align 8, !tbaa !30
  %22 = load ptr, ptr %4, align 8, !tbaa !30
  %23 = call i32 @config_with_options(ptr noundef %21, ptr noundef %22, ptr noundef null, ptr noundef null, ptr noundef %5)
  call void @llvm.lifetime.end.p0(i64 48, ptr %5) #13
  ret void
}