; Function Attrs: nounwind uwtable
define dso_local void @read_very_early_config(ptr noundef %0, ptr noundef %1) local_unnamed_addr #0 {
  %3 = alloca %struct.config_options, align 8
  call void @llvm.lifetime.start.p0(i64 48, ptr nonnull %3) #30
  call void @llvm.memset.p0.i64(ptr noundef nonnull align 8 dereferenceable(48) %3, i8 0, i64 48, i1 false)
  store i8 31, ptr %3, align 8
  %4 = call i32 @config_with_options(ptr noundef %0, ptr noundef %1, ptr noundef null, ptr noundef null, ptr noundef nonnull %3)
  call void @llvm.lifetime.end.p0(i64 48, ptr nonnull %3) #30
  ret void
}